CCS PCM C Compiler, Version 5.076, 56587               09-Dec-25 08:44

               Filename:   C:\users\rabis\Projetos PICCS\Prova 2\main.lst

               ROM used:   1444 words (18%)
                           Largest free fragment is 2048
               RAM used:   48 (13%) at main() level
                           60 (16%) worst case
               Stack used: 4 locations (3 in main + 1 for interrupts)
               Stack size: 8

*
0000:  MOVLW  03
0001:  MOVWF  0A
0002:  GOTO   337
0003:  NOP
0004:  MOVWF  7F
0005:  SWAPF  03,W
0006:  CLRF   03
0007:  MOVWF  21
0008:  MOVF   0A,W
0009:  MOVWF  20
000A:  CLRF   0A
000B:  MOVF   04,W
000C:  MOVWF  22
000D:  MOVF   77,W
000E:  MOVWF  23
000F:  MOVF   78,W
0010:  MOVWF  24
0011:  MOVF   79,W
0012:  MOVWF  25
0013:  MOVF   7A,W
0014:  MOVWF  26
0015:  BSF    03.6
0016:  MOVF   0D,W
0017:  BCF    03.6
0018:  MOVWF  27
0019:  BSF    03.6
001A:  MOVF   0F,W
001B:  BCF    03.6
001C:  MOVWF  28
001D:  BSF    03.6
001E:  MOVF   0C,W
001F:  BCF    03.6
0020:  MOVWF  29
0021:  BSF    03.6
0022:  MOVF   0E,W
0023:  BCF    03.6
0024:  MOVWF  2A
0025:  BCF    03.7
0026:  BCF    03.5
0027:  BTFSS  0B.5
0028:  GOTO   02B
0029:  BTFSC  0B.2
002A:  GOTO   04C
002B:  MOVF   22,W
002C:  MOVWF  04
002D:  MOVF   23,W
002E:  MOVWF  77
002F:  MOVF   24,W
0030:  MOVWF  78
0031:  MOVF   25,W
0032:  MOVWF  79
0033:  MOVF   26,W
0034:  MOVWF  7A
0035:  MOVF   27,W
0036:  BSF    03.6
0037:  MOVWF  0D
0038:  BCF    03.6
0039:  MOVF   28,W
003A:  BSF    03.6
003B:  MOVWF  0F
003C:  BCF    03.6
003D:  MOVF   29,W
003E:  BSF    03.6
003F:  MOVWF  0C
0040:  BCF    03.6
0041:  MOVF   2A,W
0042:  BSF    03.6
0043:  MOVWF  0E
0044:  BCF    03.6
0045:  MOVF   20,W
0046:  MOVWF  0A
0047:  SWAPF  21,W
0048:  MOVWF  03
0049:  SWAPF  7F,F
004A:  SWAPF  7F,W
004B:  RETFIE
004C:  BCF    0A.3
004D:  BCF    0A.4
004E:  GOTO   04F
.................... #include <main.h> 
.................... #include <16F877A.h> 
.................... //////////// Standard Header file for the PIC16F877A device //////////////// 
.................... /////////////////////////////////////////////////////////////////////////// 
.................... ////        (C) Copyright 1996, 2014 Custom Computer Services          //// 
.................... //// This source code may only be used by licensed users of the CCS C  //// 
.................... //// compiler.  This source code may only be distributed to other      //// 
.................... //// licensed users of the CCS C compiler.  No other use, reproduction //// 
.................... //// or distribution is permitted without written permission.          //// 
.................... //// Derivative programs created using this software in object code    //// 
.................... //// form are not restricted in any way.                               //// 
.................... /////////////////////////////////////////////////////////////////////////// 
.................... #device PIC16F877A 
*
0064:  DATA 48,1D
0065:  DATA A0,12
0066:  DATA 30,19
0067:  DATA 4C,32
0068:  DATA A5,12
0069:  DATA A0,12
006A:  DATA 30,19
006B:  DATA 4C,32
006C:  DATA A5,12
006D:  DATA A0,27
006E:  DATA 4E,10
006F:  DATA A0,12
0070:  DATA 63,00
0071:  DATA 48,1D
0072:  DATA A0,12
0073:  DATA 30,19
0074:  DATA CC,3A
0075:  DATA A5,12
0076:  DATA A0,12
0077:  DATA 30,19
0078:  DATA CC,3A
0079:  DATA A5,12
007A:  DATA A0,27
007B:  DATA 46,23
007C:  DATA A0,12
007D:  DATA 63,00
007E:  DATA 46,1D
007F:  DATA A0,12
0080:  DATA 30,19
0081:  DATA CC,3A
0082:  DATA A5,12
0083:  DATA A0,12
0084:  DATA 30,19
0085:  DATA CC,3A
0086:  DATA A5,12
0087:  DATA A0,27
0088:  DATA 4E,10
0089:  DATA A0,12
008A:  DATA 63,00
008B:  DATA 46,1D
008C:  DATA A0,12
008D:  DATA 30,19
008E:  DATA CC,3A
008F:  DATA A5,12
0090:  DATA A0,12
0091:  DATA 30,19
0092:  DATA CC,3A
0093:  DATA A5,12
0094:  DATA A0,27
0095:  DATA 46,23
0096:  DATA A0,12
0097:  DATA 63,00
*
011E:  MOVLW  8E
011F:  MOVWF  77
0120:  MOVF   4A,W
0121:  MOVWF  78
0122:  MOVF   49,W
0123:  MOVWF  79
0124:  CLRF   7A
0125:  MOVF   78,F
0126:  BTFSS  03.2
0127:  GOTO   132
0128:  MOVF   79,W
0129:  MOVWF  78
012A:  CLRF   79
012B:  MOVLW  08
012C:  SUBWF  77,F
012D:  MOVF   78,F
012E:  BTFSS  03.2
012F:  GOTO   132
0130:  CLRF   77
0131:  GOTO   13A
0132:  BCF    03.0
0133:  BTFSC  78.7
0134:  GOTO   139
0135:  RLF    79,F
0136:  RLF    78,F
0137:  DECF   77,F
0138:  GOTO   132
0139:  BCF    78.7
013A:  RETURN
013B:  MOVF   49,W
013C:  BTFSC  03.2
013D:  GOTO   1AB
013E:  MOVWF  51
013F:  MOVF   4D,W
0140:  BTFSC  03.2
0141:  GOTO   1AB
0142:  ADDWF  51,F
0143:  BTFSC  03.0
0144:  GOTO   14C
0145:  MOVLW  7F
0146:  SUBWF  51,F
0147:  BTFSS  03.0
0148:  GOTO   1AB
0149:  BTFSC  03.2
014A:  GOTO   1AB
014B:  GOTO   150
014C:  MOVLW  81
014D:  ADDWF  51,F
014E:  BTFSC  03.0
014F:  GOTO   1AB
0150:  MOVF   51,W
0151:  MOVWF  77
0152:  CLRF   78
0153:  CLRF   79
0154:  CLRF   7A
0155:  MOVF   4A,W
0156:  MOVWF  55
0157:  BSF    55.7
0158:  MOVF   4B,W
0159:  MOVWF  54
015A:  MOVF   4C,W
015B:  MOVWF  53
015C:  MOVLW  18
015D:  MOVWF  51
015E:  CLRF   52
015F:  BTFSS  53.0
0160:  GOTO   179
0161:  MOVF   50,W
0162:  ADDWF  7A,F
0163:  BTFSS  03.0
0164:  GOTO   16B
0165:  INCF   79,F
0166:  BTFSS  03.2
0167:  GOTO   16B
0168:  INCF   78,F
0169:  BTFSC  03.2
016A:  BSF    52.7
016B:  MOVF   4F,W
016C:  ADDWF  79,F
016D:  BTFSS  03.0
016E:  GOTO   172
016F:  INCF   78,F
0170:  BTFSC  03.2
0171:  BSF    52.7
0172:  MOVF   4E,W
0173:  MOVWF  4B
0174:  BSF    4B.7
0175:  MOVF   4B,W
0176:  ADDWF  78,F
0177:  BTFSC  03.0
0178:  BSF    52.7
0179:  RLF    52,F
017A:  RRF    78,F
017B:  RRF    79,F
017C:  RRF    7A,F
017D:  RRF    55,F
017E:  RRF    54,F
017F:  RRF    53,F
0180:  BCF    03.0
0181:  DECFSZ 51,F
0182:  GOTO   15E
0183:  MOVLW  01
0184:  ADDWF  77,F
0185:  BTFSC  03.0
0186:  GOTO   1AB
0187:  BTFSC  78.7
0188:  GOTO   190
0189:  RLF    55,F
018A:  RLF    7A,F
018B:  RLF    79,F
018C:  RLF    78,F
018D:  DECF   77,F
018E:  BTFSC  03.2
018F:  GOTO   1AB
0190:  BTFSS  55.7
0191:  GOTO   1A1
0192:  INCF   7A,F
0193:  BTFSS  03.2
0194:  GOTO   1A1
0195:  INCF   79,F
0196:  BTFSS  03.2
0197:  GOTO   1A1
0198:  INCF   78,F
0199:  BTFSS  03.2
019A:  GOTO   1A1
019B:  RRF    78,F
019C:  RRF    79,F
019D:  RRF    7A,F
019E:  INCF   77,F
019F:  BTFSC  03.2
01A0:  GOTO   1AB
01A1:  MOVF   4A,W
01A2:  MOVWF  52
01A3:  MOVF   4E,W
01A4:  XORWF  52,F
01A5:  BTFSS  52.7
01A6:  GOTO   1A9
01A7:  BSF    78.7
01A8:  GOTO   1AF
01A9:  BCF    78.7
01AA:  GOTO   1AF
01AB:  CLRF   77
01AC:  CLRF   78
01AD:  CLRF   79
01AE:  CLRF   7A
01AF:  RETURN
01B0:  MOVLW  8E
01B1:  MOVWF  77
01B2:  MOVF   49,W
01B3:  SUBWF  77,F
01B4:  MOVF   4A,W
01B5:  MOVWF  79
01B6:  MOVF   4B,W
01B7:  MOVWF  78
01B8:  BSF    79.7
01B9:  MOVF   77,F
01BA:  BTFSC  03.2
01BB:  GOTO   1C7
01BC:  BCF    03.0
01BD:  MOVF   79,F
01BE:  BTFSS  03.2
01BF:  GOTO   1C3
01C0:  MOVF   78,F
01C1:  BTFSC  03.2
01C2:  GOTO   1C7
01C3:  RRF    79,F
01C4:  RRF    78,F
01C5:  DECFSZ 77,F
01C6:  GOTO   1BC
01C7:  BTFSS  4A.7
01C8:  GOTO   1CE
01C9:  COMF   78,F
01CA:  COMF   79,F
01CB:  INCF   78,F
01CC:  BTFSC  03.2
01CD:  INCF   79,F
01CE:  RETURN
*
01FD:  CLRF   52
01FE:  MOVF   04,W
01FF:  MOVWF  51
0200:  BCF    52.0
0201:  BTFSC  03.7
0202:  BSF    52.0
0203:  BTFSS  4B.7
0204:  GOTO   20D
0205:  BSF    51.7
0206:  BTFSS  51.4
0207:  INCF   51,F
0208:  COMF   4A,F
0209:  COMF   4B,F
020A:  INCF   4A,F
020B:  BTFSC  03.2
020C:  INCF   4B,F
020D:  SWAPF  4B,W
020E:  IORLW  F0
020F:  MOVWF  4D
0210:  ADDWF  4D,F
0211:  ADDLW  E2
0212:  MOVWF  4E
0213:  ADDLW  32
0214:  MOVWF  50
0215:  MOVF   4B,W
0216:  ANDLW  0F
0217:  ADDWF  4E,F
0218:  ADDWF  4E,F
0219:  ADDWF  50,F
021A:  ADDLW  E9
021B:  MOVWF  4F
021C:  ADDWF  4F,F
021D:  ADDWF  4F,F
021E:  SWAPF  4A,W
021F:  ANDLW  0F
0220:  ADDWF  4F,F
0221:  ADDWF  50,F
0222:  RLF    4F,F
0223:  RLF    50,F
0224:  COMF   50,F
0225:  RLF    50,F
0226:  MOVF   4A,W
0227:  ANDLW  0F
0228:  ADDWF  50,F
0229:  RLF    4D,F
022A:  MOVLW  07
022B:  MOVWF  4C
022C:  MOVLW  0A
022D:  ADDWF  50,F
022E:  DECF   4F,F
022F:  BTFSS  03.0
0230:  GOTO   22D
0231:  ADDWF  4F,F
0232:  DECF   4E,F
0233:  BTFSS  03.0
0234:  GOTO   231
0235:  ADDWF  4E,F
0236:  DECF   4D,F
0237:  BTFSS  03.0
0238:  GOTO   235
0239:  ADDWF  4D,F
023A:  DECF   4C,F
023B:  BTFSS  03.0
023C:  GOTO   239
023D:  MOVLW  4C
023E:  MOVWF  04
023F:  BCF    03.7
0240:  MOVLW  07
0241:  ANDWF  51,W
0242:  BCF    51.6
0243:  DECF   04,F
0244:  ANDWF  51,W
0245:  BTFSS  03.2
0246:  GOTO   24E
0247:  BTFSC  51.4
0248:  INCF   04,F
0249:  BTFSC  51.4
024A:  GOTO   24E
024B:  MOVLW  20
024C:  MOVWF  77
024D:  GOTO   26B
024E:  ADDWF  04,F
024F:  MOVLW  50
0250:  SUBWF  04,W
0251:  BTFSC  03.2
0252:  BSF    51.6
0253:  MOVF   00,W
0254:  MOVWF  77
0255:  BTFSS  03.2
0256:  GOTO   25F
0257:  BTFSC  51.6
0258:  GOTO   25F
0259:  BTFSC  51.4
025A:  GOTO   279
025B:  BTFSC  51.3
025C:  GOTO   25F
025D:  MOVLW  20
025E:  GOTO   26A
025F:  BTFSS  51.7
0260:  GOTO   267
0261:  MOVLW  2D
0262:  MOVWF  77
0263:  DECF   04,F
0264:  BCF    51.6
0265:  BCF    51.7
0266:  GOTO   26B
0267:  BSF    51.3
0268:  BCF    51.4
0269:  MOVLW  30
026A:  ADDWF  77,F
026B:  CLRF   4B
026C:  MOVF   04,W
026D:  MOVWF  4A
026E:  BCF    4B.0
026F:  BTFSC  03.7
0270:  BSF    4B.0
0271:  MOVF   77,W
0272:  MOVWF  53
0273:  CALL   1DF
0274:  MOVF   4A,W
0275:  MOVWF  04
0276:  BCF    03.7
0277:  BTFSC  4B.0
0278:  BSF    03.7
0279:  INCF   04,F
027A:  BTFSS  51.6
027B:  GOTO   24F
027C:  RETURN
027D:  MOVF   0B,W
027E:  MOVWF  4B
027F:  BCF    0B.7
0280:  BSF    03.5
0281:  BSF    03.6
0282:  BSF    0C.7
0283:  BSF    0C.0
0284:  NOP
0285:  NOP
0286:  BCF    03.5
0287:  BCF    03.6
0288:  BTFSC  4B.7
0289:  BSF    0B.7
028A:  BTFSC  03.0
028B:  GOTO   2B4
028C:  BSF    03.6
028D:  MOVF   0C,W
028E:  ANDLW  7F
028F:  BCF    03.6
0290:  MOVWF  4B
0291:  BSF    03.6
0292:  MOVF   0D,W
0293:  BCF    03.6
0294:  MOVWF  4C
0295:  BSF    03.6
0296:  MOVF   0F,W
0297:  BCF    03.6
0298:  MOVWF  4D
0299:  MOVF   4B,W
029A:  MOVWF  53
029B:  CALL   1DF
029C:  MOVF   4C,W
029D:  BSF    03.6
029E:  MOVWF  0D
029F:  BCF    03.6
02A0:  MOVF   4D,W
02A1:  BSF    03.6
02A2:  MOVWF  0F
02A3:  BCF    03.6
02A4:  MOVF   0B,W
02A5:  MOVWF  4E
02A6:  BCF    0B.7
02A7:  BSF    03.5
02A8:  BSF    03.6
02A9:  BSF    0C.7
02AA:  BSF    0C.0
02AB:  NOP
02AC:  NOP
02AD:  BCF    03.5
02AE:  BCF    03.6
02AF:  BTFSC  4E.7
02B0:  BSF    0B.7
02B1:  DECFSZ 4A,F
02B2:  GOTO   2B4
02B3:  GOTO   2D3
02B4:  BSF    03.6
02B5:  RLF    0C,W
02B6:  RLF    0E,W
02B7:  ANDLW  7F
02B8:  BCF    03.6
02B9:  MOVWF  4B
02BA:  BSF    03.6
02BB:  MOVF   0D,W
02BC:  BCF    03.6
02BD:  MOVWF  4C
02BE:  BSF    03.6
02BF:  MOVF   0F,W
02C0:  BCF    03.6
02C1:  MOVWF  4D
02C2:  MOVF   4B,W
02C3:  MOVWF  53
02C4:  CALL   1DF
02C5:  MOVF   4C,W
02C6:  BSF    03.6
02C7:  MOVWF  0D
02C8:  BCF    03.6
02C9:  MOVF   4D,W
02CA:  BSF    03.6
02CB:  MOVWF  0F
02CC:  INCF   0D,F
02CD:  BTFSC  03.2
02CE:  INCF   0F,F
02CF:  BCF    03.0
02D0:  BCF    03.6
02D1:  DECFSZ 4A,F
02D2:  GOTO   27D
02D3:  RETURN
02D4:  CLRF   52
02D5:  MOVF   04,W
02D6:  MOVWF  51
02D7:  BCF    52.0
02D8:  BTFSC  03.7
02D9:  BSF    52.0
02DA:  SWAPF  4B,W
02DB:  IORLW  F0
02DC:  MOVWF  4D
02DD:  ADDWF  4D,F
02DE:  ADDLW  E2
02DF:  MOVWF  4E
02E0:  ADDLW  32
02E1:  MOVWF  50
02E2:  MOVF   4B,W
02E3:  ANDLW  0F
02E4:  ADDWF  4E,F
02E5:  ADDWF  4E,F
02E6:  ADDWF  50,F
02E7:  ADDLW  E9
02E8:  MOVWF  4F
02E9:  ADDWF  4F,F
02EA:  ADDWF  4F,F
02EB:  SWAPF  4A,W
02EC:  ANDLW  0F
02ED:  ADDWF  4F,F
02EE:  ADDWF  50,F
02EF:  RLF    4F,F
02F0:  RLF    50,F
02F1:  COMF   50,F
02F2:  RLF    50,F
02F3:  MOVF   4A,W
02F4:  ANDLW  0F
02F5:  ADDWF  50,F
02F6:  RLF    4D,F
02F7:  MOVLW  07
02F8:  MOVWF  4C
02F9:  MOVLW  0A
02FA:  ADDWF  50,F
02FB:  DECF   4F,F
02FC:  BTFSS  03.0
02FD:  GOTO   2FA
02FE:  ADDWF  4F,F
02FF:  DECF   4E,F
0300:  BTFSS  03.0
0301:  GOTO   2FE
0302:  ADDWF  4E,F
0303:  DECF   4D,F
0304:  BTFSS  03.0
0305:  GOTO   302
0306:  ADDWF  4D,F
0307:  DECF   4C,F
0308:  BTFSS  03.0
0309:  GOTO   306
030A:  MOVLW  4C
030B:  MOVWF  04
030C:  BCF    03.7
030D:  MOVLW  07
030E:  ANDWF  51,W
030F:  BCF    51.6
0310:  ADDWF  04,F
0311:  MOVLW  50
0312:  SUBWF  04,W
0313:  BTFSC  03.2
0314:  BSF    51.6
0315:  MOVF   00,W
0316:  MOVWF  77
0317:  BTFSS  03.2
0318:  GOTO   321
0319:  BTFSC  51.6
031A:  GOTO   321
031B:  BTFSC  51.4
031C:  GOTO   333
031D:  BTFSC  51.3
031E:  GOTO   321
031F:  MOVLW  20
0320:  GOTO   324
0321:  BSF    51.3
0322:  BCF    51.4
0323:  MOVLW  30
0324:  ADDWF  77,F
0325:  CLRF   4B
0326:  MOVF   04,W
0327:  MOVWF  4A
0328:  BCF    4B.0
0329:  BTFSC  03.7
032A:  BSF    4B.0
032B:  MOVF   77,W
032C:  MOVWF  53
032D:  CALL   1DF
032E:  MOVF   4A,W
032F:  MOVWF  04
0330:  BCF    03.7
0331:  BTFSC  4B.0
0332:  BSF    03.7
0333:  INCF   04,F
0334:  BTFSS  51.6
0335:  GOTO   311
0336:  RETURN
....................  
.................... #list 
....................  
.................... #device ADC = 10 
....................  
.................... #FUSES PUT		 // Power Up Timer 
.................... #FUSES BROWNOUT	 // Reset when brownout detected 
.................... #FUSES NOLVP	 // No low voltage prgming, B3(PIC16) or B5(PIC18) used for I/O 
.................... #FUSES NOCPD	 // No EE protection 
.................... #FUSES NOWRT	 // Program memory not write protected 
.................... #FUSES NOPROTECT // Code not protected from reading 
....................  
.................... #use delay(crystal = 4MHz) 
*
00EA:  MOVLW  49
00EB:  MOVWF  04
00EC:  BCF    03.7
00ED:  MOVF   00,W
00EE:  BTFSC  03.2
00EF:  GOTO   0FE
00F0:  MOVLW  01
00F1:  MOVWF  78
00F2:  CLRF   77
00F3:  DECFSZ 77,F
00F4:  GOTO   0F3
00F5:  DECFSZ 78,F
00F6:  GOTO   0F2
00F7:  MOVLW  4A
00F8:  MOVWF  77
00F9:  DECFSZ 77,F
00FA:  GOTO   0F9
00FB:  GOTO   0FC
00FC:  DECFSZ 00,F
00FD:  GOTO   0F0
00FE:  RETURN
.................... #define B_S1 PIN_B0 
.................... #define B_S2 PIN_B1 
.................... #define B_S3 PIN_B2 
.................... #define B_S4 PIN_B3 
.................... #define FAN PIN_C1 
.................... #define HEATER PIN_C2 
....................  
.................... #include <lcd_8bits.c> 
.................... /*========================================= 
.................... 8-BIT LCD DRIVER FOR PIC16F877A CCSC 
.................... ==========================================*/ 
.................... /////////////////////////////////////////////////////////////////// 
.................... // CCS C Compiler 
.................... // LCD 16x2 
.................... // 
.................... // by Nisar Ahmed 
.................... // 2009/03/27 
.................... ////////////////////////////////////////////////////////////////// 
.................... // #include <16F877.h>                           // PIC16F877 header file 
.................... // #use delay(clock=4000000)                       // for 4Mhz crystal 
.................... // #fuses XT, NOWDT, NOPROTECT, NOLVP              // for debug mode 
....................  
.................... #define PORT_A 0 // define for function output() 
.................... #define PORT_B 1 
.................... #define PORT_C 2 
.................... #define PORT_D 3 
.................... #define PORT_E 4 
....................  
.................... #define NCHAR_PER_LINE 16 // max char numbers per line 
.................... #define LCD_RS PIN_E0 
.................... #define LCD_RW PIN_E2 
.................... #define LCD_E PIN_E1 
.................... #define LCD_DAT PORT_D 
.................... //===========================================================================// 
.................... //--- output() -----------------/////////////////////////////////////////////// 
.................... // lcd data bus output 
.................... void output(int8 port, int8 dat) 
.................... { 
....................    switch (port) 
*
0098:  MOVF   54,W
0099:  XORLW  00
009A:  BTFSC  03.2
009B:  GOTO   0A9
009C:  XORLW  01
009D:  BTFSC  03.2
009E:  GOTO   0AF
009F:  XORLW  03
00A0:  BTFSC  03.2
00A1:  GOTO   0B5
00A2:  XORLW  01
00A3:  BTFSC  03.2
00A4:  GOTO   0BD
00A5:  XORLW  07
00A6:  BTFSC  03.2
00A7:  GOTO   0C3
00A8:  GOTO   0CB
....................    { 
....................    case PORT_A: 
....................       output_a(dat); 
00A9:  BSF    03.5
00AA:  CLRF   05
00AB:  BCF    03.5
00AC:  MOVF   55,W
00AD:  MOVWF  05
....................       break; 
00AE:  GOTO   0CB
....................    case PORT_B: 
....................       output_b(dat); 
00AF:  BSF    03.5
00B0:  CLRF   06
00B1:  BCF    03.5
00B2:  MOVF   55,W
00B3:  MOVWF  06
....................       break; 
00B4:  GOTO   0CB
....................    case PORT_C: 
....................       output_c(dat); 
00B5:  MOVLW  00
00B6:  MOVWF  2B
00B7:  BSF    03.5
00B8:  CLRF   07
00B9:  BCF    03.5
00BA:  MOVF   55,W
00BB:  MOVWF  07
....................       break; 
00BC:  GOTO   0CB
....................    case PORT_D: 
....................       output_d(dat); 
00BD:  BSF    03.5
00BE:  CLRF   08
00BF:  BCF    03.5
00C0:  MOVF   55,W
00C1:  MOVWF  08
....................       break; 
00C2:  GOTO   0CB
....................    case PORT_E: 
....................       output_e(dat); 
00C3:  BSF    03.5
00C4:  BCF    09.0
00C5:  BCF    09.1
00C6:  BCF    09.2
00C7:  BCF    03.5
00C8:  MOVF   55,W
00C9:  MOVWF  09
....................       break; 
00CA:  GOTO   0CB
....................    default: //??? port maybe error! 
....................       break; 
....................    } 
00CB:  RETURN
.................... } // end output() 
.................... //===========================================================================// 
.................... //--- lcd_write_cmd() -----------////////////////////////////////////////////// 
.................... void lcd_write_cmd(int8 cmd) 
.................... { 
....................    delay_us(40); 
00CC:  MOVLW  0D
00CD:  MOVWF  77
00CE:  DECFSZ 77,F
00CF:  GOTO   0CE
....................    output_low(LCD_RS); 
00D0:  BSF    03.5
00D1:  BCF    09.0
00D2:  BCF    03.5
00D3:  BCF    09.0
....................    output_low(LCD_RW); 
00D4:  BSF    03.5
00D5:  BCF    09.2
00D6:  BCF    03.5
00D7:  BCF    09.2
....................    output(LCD_DAT, cmd); 
00D8:  MOVLW  03
00D9:  MOVWF  54
00DA:  MOVF   4D,W
00DB:  MOVWF  55
00DC:  CALL   098
....................  
....................    output_high(LCD_E); 
00DD:  BSF    03.5
00DE:  BCF    09.1
00DF:  BCF    03.5
00E0:  BSF    09.1
....................    delay_us(40); 
00E1:  MOVLW  0D
00E2:  MOVWF  77
00E3:  DECFSZ 77,F
00E4:  GOTO   0E3
....................    output_low(LCD_E); 
00E5:  BSF    03.5
00E6:  BCF    09.1
00E7:  BCF    03.5
00E8:  BCF    09.1
00E9:  RETURN
.................... } // end lcd_write_cmd() 
.................... //===========================================================================// 
.................... //--- lcd_write_dat() ------------///////////////////////////////////////////// 
.................... void lcd_write_dat(int8 dat) 
.................... { 
....................    delay_us(40); 
*
01DF:  MOVLW  0D
01E0:  MOVWF  77
01E1:  DECFSZ 77,F
01E2:  GOTO   1E1
....................    output_high(LCD_RS); 
01E3:  BSF    03.5
01E4:  BCF    09.0
01E5:  BCF    03.5
01E6:  BSF    09.0
....................    output_low(LCD_RW); 
01E7:  BSF    03.5
01E8:  BCF    09.2
01E9:  BCF    03.5
01EA:  BCF    09.2
....................    output(LCD_DAT, dat); 
01EB:  MOVLW  03
01EC:  MOVWF  54
01ED:  MOVF   53,W
01EE:  MOVWF  55
01EF:  CALL   098
....................  
....................    output_high(LCD_E); 
01F0:  BSF    03.5
01F1:  BCF    09.1
01F2:  BCF    03.5
01F3:  BSF    09.1
....................    delay_us(40); 
01F4:  MOVLW  0D
01F5:  MOVWF  77
01F6:  DECFSZ 77,F
01F7:  GOTO   1F6
....................    output_low(LCD_E); 
01F8:  BSF    03.5
01F9:  BCF    09.1
01FA:  BCF    03.5
01FB:  BCF    09.1
01FC:  RETURN
.................... } // end lcd_write_dat() 
.................... //===========================================================================// 
.................... //--- lcd_init() ------------////////////////////////////////////////////////// 
.................... void lcd_init(void) 
.................... { 
....................    output_low(LCD_E); // Let LCD E line low 
*
00FF:  BSF    03.5
0100:  BCF    09.1
0101:  BCF    03.5
0102:  BCF    09.1
....................  
....................    lcd_write_cmd(0x38); // LCD 16x2, 5x7, 8bits data 
0103:  MOVLW  38
0104:  MOVWF  4D
0105:  CALL   0CC
....................    delay_ms(15); 
0106:  MOVLW  0F
0107:  MOVWF  49
0108:  CALL   0EA
....................    lcd_write_cmd(0x01); // Clear LCD display 
0109:  MOVLW  01
010A:  MOVWF  4D
010B:  CALL   0CC
....................    delay_ms(10); 
010C:  MOVLW  0A
010D:  MOVWF  49
010E:  CALL   0EA
....................    lcd_write_cmd(0x0C); // Open display & current 
010F:  MOVLW  0C
0110:  MOVWF  4D
0111:  CALL   0CC
....................    delay_ms(10); 
0112:  MOVLW  0A
0113:  MOVWF  49
0114:  CALL   0EA
....................    lcd_write_cmd(0x06); // Window fixed 
0115:  MOVLW  06
0116:  MOVWF  4D
0117:  CALL   0CC
....................    delay_ms(10); 
0118:  MOVLW  0A
0119:  MOVWF  49
011A:  CALL   0EA
011B:  BCF    0A.3
011C:  BCF    0A.4
011D:  GOTO   385 (RETURN)
.................... } // end lcd_init() 
.................... //===========================================================================// 
.................... //--- lcd_display_char() ------------////////////////////////////////////////// 
.................... void lcd_display_char(int8 line, int8 pos, int8 ch) 
.................... { 
....................    int8 tmp; 
....................  
....................    line = (line == 0) ? 0 : 1; 
....................    pos = (pos > NCHAR_PER_LINE) ? NCHAR_PER_LINE : pos; 
....................  
....................    tmp = 0x80 + 0x40 * line + pos; 
....................    lcd_write_cmd(tmp); 
....................    lcd_write_dat(ch); 
.................... } // end lcd_display_char() 
.................... //===========================================================================// 
.................... //--- lcd_display_str() ------------/////////////////////////////////////////// 
.................... void lcd_display_str(int8 line, char str[]) 
.................... { 
....................    int8 i; 
....................  
....................    for (i = 0; i < NCHAR_PER_LINE; i++) 
....................    { 
....................       lcd_display_char(line, i, ' '); 
....................    } 
....................    for (i = 0; i < NCHAR_PER_LINE; i++) 
....................    { 
....................       if (str[i] == '\0') 
....................          break; 
....................       lcd_display_char(line, i, str[i]); 
....................    } 
.................... } // end lcd_display_str() 
.................... //===========================================================================// 
.................... //--- lcd_gotoxy(coluna linha) -----/////////////////////////////////////////// 
.................... void lcd_gotoxy(unsigned int8 x, unsigned int8 y) 
.................... { 
....................    unsigned int8 address; 
....................  
....................    if (y != 1) 
*
01CF:  DECFSZ 4A,W
01D0:  GOTO   1D2
01D1:  GOTO   1D5
....................       address = 0x40; 
01D2:  MOVLW  40
01D3:  MOVWF  4B
01D4:  GOTO   1D6
....................    else 
....................       address = 0x00; 
01D5:  CLRF   4B
....................  
....................    address += (x - 1); 
01D6:  MOVLW  01
01D7:  SUBWF  49,W
01D8:  ADDWF  4B,F
....................    lcd_write_cmd(0x80 | address); 
01D9:  MOVF   4B,W
01DA:  IORLW  80
01DB:  MOVWF  4C
01DC:  MOVWF  4D
01DD:  CALL   0CC
01DE:  RETURN
.................... } 
.................... //===========================================================================// 
....................  
....................  
.................... int1 fim_100ms = 0; 
.................... int16 contador_100ms = 100; 
....................  
.................... int1 modo = 1, fan_estado, heater_estado; 
.................... int16 heater_pwm, heater_ajuste, fan_pwm, fan_ajuste; 
.................... int16 heater_porcentagem, heater_ajuste_porcentagem, fan_porcentagem, fan_ajuste_porcentagem; 
....................  
.................... int16 filtro_s1 = 250, filtro_s2 = 250, filtro_s3 = 250, filtro_s4 = 250; 
....................  
.................... #INT_TIMER0 
.................... void TIMER0_isr(void) 
.................... { 
.................... 	set_timer0(get_timer0() + 6); 
*
004F:  MOVF   01,W
0050:  ADDLW  06
0051:  MOVWF  56
0052:  MOVF   56,W
0053:  MOVWF  01
....................  
.................... 	if (--contador_100ms == 0) 
0054:  MOVF   2D,W
0055:  BTFSC  03.2
0056:  DECF   2E,F
0057:  DECFSZ 2D,F
0058:  GOTO   060
0059:  MOVF   2E,F
005A:  BTFSS  03.2
005B:  GOTO   060
.................... 	{ 
.................... 		fim_100ms = 1; 
005C:  BSF    2C.0
.................... 		contador_100ms = 100; 
005D:  CLRF   2E
005E:  MOVLW  64
005F:  MOVWF  2D
.................... 	} 
0060:  BCF    0B.2
0061:  BCF    0A.3
0062:  BCF    0A.4
0063:  GOTO   02B
.................... } 
....................  
.................... void main() 
*
0337:  MOVF   03,W
0338:  ANDLW  1F
0339:  MOVWF  03
033A:  MOVLW  FF
033B:  MOVWF  2B
033C:  BCF    2C.0
033D:  CLRF   2E
033E:  MOVLW  64
033F:  MOVWF  2D
0340:  BSF    2C.1
0341:  CLRF   40
0342:  MOVLW  FA
0343:  MOVWF  3F
0344:  CLRF   42
0345:  MOVWF  41
0346:  CLRF   44
0347:  MOVWF  43
0348:  CLRF   46
0349:  MOVWF  45
034A:  BSF    03.5
034B:  BSF    1F.0
034C:  BSF    1F.1
034D:  BSF    1F.2
034E:  BCF    1F.3
034F:  MOVLW  07
0350:  MOVWF  1C
0351:  BCF    03.7
.................... { 
.................... 	setup_adc_ports(AN0_AN1_AN3); 
0352:  BCF    1F.0
0353:  BCF    1F.1
0354:  BSF    1F.2
0355:  BCF    1F.3
.................... 	setup_adc(ADC_CLOCK_INTERNAL); 
0356:  BCF    1F.6
0357:  BCF    03.5
0358:  BSF    1F.6
0359:  BSF    1F.7
035A:  BSF    03.5
035B:  BSF    1F.7
035C:  BCF    03.5
035D:  BSF    1F.0
.................... 	setup_timer_0(RTCC_INTERNAL | RTCC_DIV_4 | RTCC_8_BIT); // 1.0 ms overflow 
035E:  BSF    03.5
035F:  MOVF   01,W
0360:  ANDLW  C0
0361:  IORLW  01
0362:  MOVWF  01
.................... 	setup_timer_2(T2_DIV_BY_1, 199, 1);						// 200 us overflow, 200 us interrupt 
0363:  MOVLW  00
0364:  MOVWF  78
0365:  IORLW  04
0366:  BCF    03.5
0367:  MOVWF  12
0368:  MOVLW  C7
0369:  BSF    03.5
036A:  MOVWF  12
....................  
.................... 	setup_ccp1(CCP_PWM); 
036B:  BCF    03.5
036C:  BCF    2B.2
036D:  MOVF   2B,W
036E:  BSF    03.5
036F:  MOVWF  07
0370:  BCF    03.5
0371:  BCF    07.2
0372:  MOVLW  0C
0373:  MOVWF  17
.................... 	setup_ccp2(CCP_PWM); 
0374:  BCF    2B.1
0375:  MOVF   2B,W
0376:  BSF    03.5
0377:  MOVWF  07
0378:  BCF    03.5
0379:  BCF    07.1
037A:  MOVLW  0C
037B:  MOVWF  1D
.................... 	set_pwm1_duty((int16)0); 
037C:  CLRF   15
037D:  MOVF   17,W
037E:  ANDLW  CF
037F:  MOVWF  17
.................... 	set_pwm2_duty((int16)0); 
0380:  CLRF   1B
0381:  MOVF   1D,W
0382:  ANDLW  CF
0383:  MOVWF  1D
....................  
.................... 	lcd_init(); 
0384:  GOTO   0FF
....................  
.................... 	enable_interrupts(INT_TIMER0); 
0385:  BSF    0B.5
.................... 	enable_interrupts(GLOBAL); 
0386:  MOVLW  C0
0387:  IORWF  0B,F
....................  
.................... 	while (TRUE) 
.................... 	{ 
.................... 		if (fim_100ms) 
0388:  BTFSS  2C.0
0389:  GOTO   542
.................... 		{ 
.................... 			fim_100ms = 0; 
038A:  BCF    2C.0
....................  
.................... 			set_adc_channel(0); 
038B:  MOVLW  00
038C:  MOVWF  78
038D:  MOVF   1F,W
038E:  ANDLW  C7
038F:  IORWF  78,W
0390:  MOVWF  1F
.................... 			heater_pwm = read_adc(); 
0391:  BSF    1F.2
0392:  BTFSC  1F.2
0393:  GOTO   392
0394:  BSF    03.5
0395:  MOVF   1E,W
0396:  BCF    03.5
0397:  MOVWF  2F
0398:  MOVF   1E,W
0399:  MOVWF  30
....................  
.................... 			heater_porcentagem = heater_pwm * 0.09765625; 
039A:  MOVF   30,W
039B:  MOVWF  4A
039C:  MOVF   2F,W
039D:  MOVWF  49
039E:  CALL   11E
039F:  MOVF   7A,W
03A0:  MOVWF  4C
03A1:  MOVF   79,W
03A2:  MOVWF  4B
03A3:  MOVF   78,W
03A4:  MOVWF  4A
03A5:  MOVF   77,W
03A6:  MOVWF  49
03A7:  CLRF   50
03A8:  CLRF   4F
03A9:  MOVLW  48
03AA:  MOVWF  4E
03AB:  MOVLW  7B
03AC:  MOVWF  4D
03AD:  CALL   13B
03AE:  MOVF   7A,W
03AF:  MOVWF  4C
03B0:  MOVF   79,W
03B1:  MOVWF  4B
03B2:  MOVF   78,W
03B3:  MOVWF  4A
03B4:  MOVF   77,W
03B5:  MOVWF  49
03B6:  CALL   1B0
03B7:  MOVF   79,W
03B8:  MOVWF  38
03B9:  MOVF   78,W
03BA:  MOVWF  37
.................... 			heater_ajuste_porcentagem = heater_ajuste * 0.09765625; 
03BB:  MOVF   32,W
03BC:  MOVWF  4A
03BD:  MOVF   31,W
03BE:  MOVWF  49
03BF:  CALL   11E
03C0:  MOVF   7A,W
03C1:  MOVWF  4C
03C2:  MOVF   79,W
03C3:  MOVWF  4B
03C4:  MOVF   78,W
03C5:  MOVWF  4A
03C6:  MOVF   77,W
03C7:  MOVWF  49
03C8:  CLRF   50
03C9:  CLRF   4F
03CA:  MOVLW  48
03CB:  MOVWF  4E
03CC:  MOVLW  7B
03CD:  MOVWF  4D
03CE:  CALL   13B
03CF:  MOVF   7A,W
03D0:  MOVWF  4C
03D1:  MOVF   79,W
03D2:  MOVWF  4B
03D3:  MOVF   78,W
03D4:  MOVWF  4A
03D5:  MOVF   77,W
03D6:  MOVWF  49
03D7:  CALL   1B0
03D8:  MOVF   79,W
03D9:  MOVWF  3A
03DA:  MOVF   78,W
03DB:  MOVWF  39
....................  
.................... 			lcd_gotoxy(1, 1); 
03DC:  MOVLW  01
03DD:  MOVWF  49
03DE:  MOVWF  4A
03DF:  CALL   1CF
.................... 			// printf(lcd_write_dat, "H: %Ld %Ld %Ld", heater_pwm, heater_porcentagem, heater_ajuste_porcentagem); 
.................... 			if (heater_estado) 
03E0:  BTFSS  2C.3
03E1:  GOTO   416
.................... 				printf(lcd_write_dat, "H: %02Ld%% %02Ld%% ON  %c", heater_porcentagem, heater_ajuste_porcentagem, (modo ? 'x' : ' ')); 
03E2:  BTFSS  2C.1
03E3:  GOTO   3E6
03E4:  MOVLW  78
03E5:  GOTO   3E7
03E6:  MOVLW  20
03E7:  MOVWF  49
03E8:  MOVLW  48
03E9:  MOVWF  53
03EA:  CALL   1DF
03EB:  MOVLW  3A
03EC:  MOVWF  53
03ED:  CALL   1DF
03EE:  MOVLW  20
03EF:  MOVWF  53
03F0:  CALL   1DF
03F1:  MOVLW  0C
03F2:  MOVWF  04
03F3:  MOVF   38,W
03F4:  MOVWF  4B
03F5:  MOVF   37,W
03F6:  MOVWF  4A
03F7:  CALL   1FD
03F8:  MOVLW  25
03F9:  MOVWF  53
03FA:  CALL   1DF
03FB:  MOVLW  20
03FC:  MOVWF  53
03FD:  CALL   1DF
03FE:  MOVLW  0C
03FF:  MOVWF  04
0400:  MOVF   3A,W
0401:  MOVWF  4B
0402:  MOVF   39,W
0403:  MOVWF  4A
0404:  CALL   1FD
0405:  MOVLW  25
0406:  MOVWF  53
0407:  CALL   1DF
0408:  MOVLW  6D
0409:  BSF    03.6
040A:  MOVWF  0D
040B:  MOVLW  00
040C:  MOVWF  0F
040D:  BCF    03.0
040E:  MOVLW  05
040F:  BCF    03.6
0410:  MOVWF  4A
0411:  CALL   27D
0412:  MOVF   49,W
0413:  MOVWF  53
0414:  CALL   1DF
0415:  GOTO   449
.................... 			else 
.................... 				printf(lcd_write_dat, "H: %02Lu%% %02Lu%% OFF %c", heater_porcentagem, heater_ajuste_porcentagem, (modo ? 'x' : ' ')); 
0416:  BTFSS  2C.1
0417:  GOTO   41A
0418:  MOVLW  78
0419:  GOTO   41B
041A:  MOVLW  20
041B:  MOVWF  49
041C:  MOVLW  48
041D:  MOVWF  53
041E:  CALL   1DF
041F:  MOVLW  3A
0420:  MOVWF  53
0421:  CALL   1DF
0422:  MOVLW  20
0423:  MOVWF  53
0424:  CALL   1DF
0425:  MOVLW  0B
0426:  MOVWF  04
0427:  MOVF   38,W
0428:  MOVWF  4B
0429:  MOVF   37,W
042A:  MOVWF  4A
042B:  CALL   2D4
042C:  MOVLW  25
042D:  MOVWF  53
042E:  CALL   1DF
042F:  MOVLW  20
0430:  MOVWF  53
0431:  CALL   1DF
0432:  MOVLW  0B
0433:  MOVWF  04
0434:  MOVF   3A,W
0435:  MOVWF  4B
0436:  MOVF   39,W
0437:  MOVWF  4A
0438:  CALL   2D4
0439:  MOVLW  25
043A:  MOVWF  53
043B:  CALL   1DF
043C:  MOVLW  7A
043D:  BSF    03.6
043E:  MOVWF  0D
043F:  MOVLW  00
0440:  MOVWF  0F
0441:  BCF    03.0
0442:  MOVLW  05
0443:  BCF    03.6
0444:  MOVWF  4A
0445:  CALL   27D
0446:  MOVF   49,W
0447:  MOVWF  53
0448:  CALL   1DF
.................... 			 
.................... 			if (heater_estado) 
0449:  BTFSS  2C.3
044A:  GOTO   465
.................... 				set_pwm1_duty(heater_ajuste_porcentagem * 8); 
044B:  RLF    39,W
044C:  MOVWF  49
044D:  RLF    3A,W
044E:  MOVWF  4A
044F:  RLF    49,F
0450:  RLF    4A,F
0451:  RLF    49,F
0452:  RLF    4A,F
0453:  MOVLW  F8
0454:  ANDWF  49,F
0455:  RRF    4A,F
0456:  RRF    49,F
0457:  RRF    4A,F
0458:  RRF    49,F
0459:  RRF    4A,F
045A:  MOVF   49,W
045B:  MOVWF  15
045C:  RRF    4A,F
045D:  RRF    4A,W
045E:  ANDLW  30
045F:  MOVWF  77
0460:  MOVF   17,W
0461:  ANDLW  CF
0462:  IORWF  77,W
0463:  MOVWF  17
0464:  GOTO   466
.................... 			else 
.................... 				set_pwm1_duty(0); 
0465:  CLRF   15
....................  
.................... 			set_adc_channel(2); 
0466:  MOVLW  10
0467:  MOVWF  78
0468:  MOVF   1F,W
0469:  ANDLW  C7
046A:  IORWF  78,W
046B:  MOVWF  1F
.................... 			fan_pwm = read_adc(); 
046C:  BSF    1F.2
046D:  BTFSC  1F.2
046E:  GOTO   46D
046F:  BSF    03.5
0470:  MOVF   1E,W
0471:  BCF    03.5
0472:  MOVWF  33
0473:  MOVF   1E,W
0474:  MOVWF  34
.................... 			fan_porcentagem = fan_pwm * 0.09765625; 
0475:  MOVF   34,W
0476:  MOVWF  4A
0477:  MOVF   33,W
0478:  MOVWF  49
0479:  CALL   11E
047A:  MOVF   7A,W
047B:  MOVWF  4C
047C:  MOVF   79,W
047D:  MOVWF  4B
047E:  MOVF   78,W
047F:  MOVWF  4A
0480:  MOVF   77,W
0481:  MOVWF  49
0482:  CLRF   50
0483:  CLRF   4F
0484:  MOVLW  48
0485:  MOVWF  4E
0486:  MOVLW  7B
0487:  MOVWF  4D
0488:  CALL   13B
0489:  MOVF   7A,W
048A:  MOVWF  4C
048B:  MOVF   79,W
048C:  MOVWF  4B
048D:  MOVF   78,W
048E:  MOVWF  4A
048F:  MOVF   77,W
0490:  MOVWF  49
0491:  CALL   1B0
0492:  MOVF   79,W
0493:  MOVWF  3C
0494:  MOVF   78,W
0495:  MOVWF  3B
.................... 			fan_ajuste_porcentagem = fan_ajuste * 0.09765625; 
0496:  MOVF   36,W
0497:  MOVWF  4A
0498:  MOVF   35,W
0499:  MOVWF  49
049A:  CALL   11E
049B:  MOVF   7A,W
049C:  MOVWF  4C
049D:  MOVF   79,W
049E:  MOVWF  4B
049F:  MOVF   78,W
04A0:  MOVWF  4A
04A1:  MOVF   77,W
04A2:  MOVWF  49
04A3:  CLRF   50
04A4:  CLRF   4F
04A5:  MOVLW  48
04A6:  MOVWF  4E
04A7:  MOVLW  7B
04A8:  MOVWF  4D
04A9:  CALL   13B
04AA:  MOVF   7A,W
04AB:  MOVWF  4C
04AC:  MOVF   79,W
04AD:  MOVWF  4B
04AE:  MOVF   78,W
04AF:  MOVWF  4A
04B0:  MOVF   77,W
04B1:  MOVWF  49
04B2:  CALL   1B0
04B3:  MOVF   79,W
04B4:  MOVWF  3E
04B5:  MOVF   78,W
04B6:  MOVWF  3D
.................... 			 
.................... 			lcd_gotoxy(1, 2); 
04B7:  MOVLW  01
04B8:  MOVWF  49
04B9:  MOVLW  02
04BA:  MOVWF  4A
04BB:  CALL   1CF
.................... 			if (fan_estado) 
04BC:  BTFSS  2C.2
04BD:  GOTO   4F2
.................... 				printf(lcd_write_dat, "F: %02Lu%% %02Lu%% ON  %c", fan_porcentagem, fan_ajuste_porcentagem, (!modo ? 'x' : ' ')); 
04BE:  BTFSC  2C.1
04BF:  GOTO   4C2
04C0:  MOVLW  78
04C1:  GOTO   4C3
04C2:  MOVLW  20
04C3:  MOVWF  49
04C4:  MOVLW  46
04C5:  MOVWF  53
04C6:  CALL   1DF
04C7:  MOVLW  3A
04C8:  MOVWF  53
04C9:  CALL   1DF
04CA:  MOVLW  20
04CB:  MOVWF  53
04CC:  CALL   1DF
04CD:  MOVLW  0B
04CE:  MOVWF  04
04CF:  MOVF   3C,W
04D0:  MOVWF  4B
04D1:  MOVF   3B,W
04D2:  MOVWF  4A
04D3:  CALL   2D4
04D4:  MOVLW  25
04D5:  MOVWF  53
04D6:  CALL   1DF
04D7:  MOVLW  20
04D8:  MOVWF  53
04D9:  CALL   1DF
04DA:  MOVLW  0B
04DB:  MOVWF  04
04DC:  MOVF   3E,W
04DD:  MOVWF  4B
04DE:  MOVF   3D,W
04DF:  MOVWF  4A
04E0:  CALL   2D4
04E1:  MOVLW  25
04E2:  MOVWF  53
04E3:  CALL   1DF
04E4:  MOVLW  87
04E5:  BSF    03.6
04E6:  MOVWF  0D
04E7:  MOVLW  00
04E8:  MOVWF  0F
04E9:  BCF    03.0
04EA:  MOVLW  05
04EB:  BCF    03.6
04EC:  MOVWF  4A
04ED:  CALL   27D
04EE:  MOVF   49,W
04EF:  MOVWF  53
04F0:  CALL   1DF
04F1:  GOTO   525
.................... 			else 
.................... 				printf(lcd_write_dat, "F: %02Lu%% %02Lu%% OFF %c", fan_porcentagem, fan_ajuste_porcentagem, (!modo ? 'x' : ' ')); 
04F2:  BTFSC  2C.1
04F3:  GOTO   4F6
04F4:  MOVLW  78
04F5:  GOTO   4F7
04F6:  MOVLW  20
04F7:  MOVWF  49
04F8:  MOVLW  46
04F9:  MOVWF  53
04FA:  CALL   1DF
04FB:  MOVLW  3A
04FC:  MOVWF  53
04FD:  CALL   1DF
04FE:  MOVLW  20
04FF:  MOVWF  53
0500:  CALL   1DF
0501:  MOVLW  0B
0502:  MOVWF  04
0503:  MOVF   3C,W
0504:  MOVWF  4B
0505:  MOVF   3B,W
0506:  MOVWF  4A
0507:  CALL   2D4
0508:  MOVLW  25
0509:  MOVWF  53
050A:  CALL   1DF
050B:  MOVLW  20
050C:  MOVWF  53
050D:  CALL   1DF
050E:  MOVLW  0B
050F:  MOVWF  04
0510:  MOVF   3E,W
0511:  MOVWF  4B
0512:  MOVF   3D,W
0513:  MOVWF  4A
0514:  CALL   2D4
0515:  MOVLW  25
0516:  MOVWF  53
0517:  CALL   1DF
0518:  MOVLW  94
0519:  BSF    03.6
051A:  MOVWF  0D
051B:  MOVLW  00
051C:  MOVWF  0F
051D:  BCF    03.0
051E:  MOVLW  05
051F:  BCF    03.6
0520:  MOVWF  4A
0521:  CALL   27D
0522:  MOVF   49,W
0523:  MOVWF  53
0524:  CALL   1DF
....................  
.................... 			if (fan_estado) 
0525:  BTFSS  2C.2
0526:  GOTO   541
.................... 				set_pwm2_duty(fan_ajuste_porcentagem * 8); 
0527:  RLF    3D,W
0528:  MOVWF  49
0529:  RLF    3E,W
052A:  MOVWF  4A
052B:  RLF    49,F
052C:  RLF    4A,F
052D:  RLF    49,F
052E:  RLF    4A,F
052F:  MOVLW  F8
0530:  ANDWF  49,F
0531:  RRF    4A,F
0532:  RRF    49,F
0533:  RRF    4A,F
0534:  RRF    49,F
0535:  RRF    4A,F
0536:  MOVF   49,W
0537:  MOVWF  1B
0538:  RRF    4A,F
0539:  RRF    4A,W
053A:  ANDLW  30
053B:  MOVWF  77
053C:  MOVF   1D,W
053D:  ANDLW  CF
053E:  IORWF  77,W
053F:  MOVWF  1D
0540:  GOTO   542
.................... 			else 
.................... 				set_pwm2_duty(0); 
0541:  CLRF   1B
.................... 		} 
....................  
.................... 		if (!input(B_S1)) 
0542:  BSF    03.5
0543:  BSF    06.0
0544:  BCF    03.5
0545:  BTFSC  06.0
0546:  GOTO   551
.................... 		{ 
.................... 			while (!input(B_S1)); 
0547:  BSF    03.5
0548:  BSF    06.0
0549:  BCF    03.5
054A:  BTFSS  06.0
054B:  GOTO   547
....................  
.................... 			// while (filtro_s1--); 
.................... 			filtro_s1 = 250; 
054C:  CLRF   40
054D:  MOVLW  FA
054E:  MOVWF  3F
....................  
.................... 			heater_estado = !heater_estado; 
054F:  MOVLW  08
0550:  XORWF  2C,F
.................... 		} 
.................... 		filtro_s1 = 250; 
0551:  CLRF   40
0552:  MOVLW  FA
0553:  MOVWF  3F
....................  
.................... 		if (!input(B_S2)) 
0554:  BSF    03.5
0555:  BSF    06.1
0556:  BCF    03.5
0557:  BTFSC  06.1
0558:  GOTO   563
.................... 		{ 
.................... 			while (!input(B_S2)); 
0559:  BSF    03.5
055A:  BSF    06.1
055B:  BCF    03.5
055C:  BTFSS  06.1
055D:  GOTO   559
....................  
.................... 			// while (filtro_s2--); 
.................... 			filtro_s2 = 250; 
055E:  CLRF   42
055F:  MOVLW  FA
0560:  MOVWF  41
....................  
.................... 			fan_estado = !fan_estado; 
0561:  MOVLW  04
0562:  XORWF  2C,F
.................... 		} 
.................... 		filtro_s2 = 250; 
0563:  CLRF   42
0564:  MOVLW  FA
0565:  MOVWF  41
....................  
.................... 		if (!input(B_S3)) 
0566:  BSF    03.5
0567:  BSF    06.2
0568:  BCF    03.5
0569:  BTFSC  06.2
056A:  GOTO   575
.................... 		{ 
.................... 			while (!input(B_S3)); 
056B:  BSF    03.5
056C:  BSF    06.2
056D:  BCF    03.5
056E:  BTFSS  06.2
056F:  GOTO   56B
....................  
.................... 			// while (filtro_s3--); 
.................... 			filtro_s3 = 250; 
0570:  CLRF   44
0571:  MOVLW  FA
0572:  MOVWF  43
....................  
.................... 			modo = !modo; 
0573:  MOVLW  02
0574:  XORWF  2C,F
.................... 		} 
.................... 		filtro_s3 = 250; 
0575:  CLRF   44
0576:  MOVLW  FA
0577:  MOVWF  43
....................  
.................... 		if (!input(B_S4)) 
0578:  BSF    03.5
0579:  BSF    06.3
057A:  BCF    03.5
057B:  BTFSC  06.3
057C:  GOTO   59F
.................... 		{ 
.................... 			while (!input(B_S4)); 
057D:  BSF    03.5
057E:  BSF    06.3
057F:  BCF    03.5
0580:  BTFSS  06.3
0581:  GOTO   57D
....................  
.................... 			// while (filtro_s4--); 
.................... 			filtro_s4 = 250; 
0582:  CLRF   46
0583:  MOVLW  FA
0584:  MOVWF  45
....................  
.................... 			set_adc_channel(1); 
0585:  MOVLW  08
0586:  MOVWF  78
0587:  MOVF   1F,W
0588:  ANDLW  C7
0589:  IORWF  78,W
058A:  MOVWF  1F
.................... 			int16 ajuste = read_adc(); 
058B:  BSF    1F.2
058C:  BTFSC  1F.2
058D:  GOTO   58C
058E:  BSF    03.5
058F:  MOVF   1E,W
0590:  BCF    03.5
0591:  MOVWF  47
0592:  MOVF   1E,W
0593:  MOVWF  48
.................... 			if (modo) 
0594:  BTFSS  2C.1
0595:  GOTO   59B
.................... 				heater_ajuste = ajuste; 
0596:  MOVF   48,W
0597:  MOVWF  32
0598:  MOVF   47,W
0599:  MOVWF  31
059A:  GOTO   59F
.................... 			else 
.................... 				fan_ajuste = ajuste; 
059B:  MOVF   48,W
059C:  MOVWF  36
059D:  MOVF   47,W
059E:  MOVWF  35
.................... 		} 
.................... 		filtro_s4 = 250; 
059F:  CLRF   46
05A0:  MOVLW  FA
05A1:  MOVWF  45
05A2:  GOTO   388
.................... 	} 
.................... } 
05A3:  SLEEP

Configuration Fuses:
   Word  1: 3F71   XT NOWDT PUT BROWNOUT NOLVP NOCPD NOWRT NODEBUG NOPROTECT
